; Function Attrs: nounwind sspstrong uwtable
define internal i64 @ossl_x509name_hash_old(i64 noundef %0) #0 {
  %2 = tail call ptr @rb_check_typeddata(i64 noundef %0, ptr noundef nonnull @ossl_x509name_type) #8
  %.not = icmp eq ptr %2, null
  br i1 %.not, label %3, label %5

3:                                                ; preds = %1
  %4 = load i64, ptr @rb_eRuntimeError, align 8, !tbaa !6
  tail call void (i64, ptr, ...) @ossl_raise(i64 noundef %4, ptr noundef nonnull @.str) #9
  unreachable

5:                                                ; preds = %1
  %6 = tail call i64 @X509_NAME_hash_old(ptr noundef nonnull %2) #8
  %7 = icmp ult i64 %6, 4611686018427387904
  br i1 %7, label %8, label %11

8:                                                ; preds = %5
  %9 = shl nuw nsw i64 %6, 1
  %10 = or disjoint i64 %9, 1
  br label %rb_ulong2num_inline.exit

11:                                               ; preds = %5
  %12 = tail call i64 @rb_uint2big(i64 noundef %6) #8
  br label %rb_ulong2num_inline.exit

rb_ulong2num_inline.exit:                         ; preds = %8, %11
  %.0.i = phi i64 [ %10, %8 ], [ %12, %11 ]
  ret i64 %.0.i
}